target datalayout = "e-m:e-p270:32:32-p271:32:32-p272:64:64-i64:64-i128:128-f80:128-n8:16:32:64-S128"
target triple = "x86_64-pc-linux-gnu"

%struct._freshclam_dat_v1 = type { i32, [37 x i8], i64 }

@g_freshclamDat = external global ptr, align 8
@.str.68 = private unnamed_addr constant [58 x i8] c"Failed to query the local time for the retry-after date!\0A\00", align 1
@.str.69 = private unnamed_addr constant [18 x i8] c"%Y-%m-%d %H:%M:%S\00", align 1
@g_lastRay = external global [21 x i8], align 16
@.str.84 = private unnamed_addr constant [2 x i8] c"\0A\00", align 1
@.str.89 = private unnamed_addr constant [69 x i8] c"    FreshClam should check DNS first to see if an update is needed.\0A\00", align 1
@.str.91 = private unnamed_addr constant [78 x i8] c"    it is recommended that you set up a private mirror on your network using\0A\00", align 1
@.str.92 = private unnamed_addr constant [78 x i8] c"    cvdupdate (https://pypi.org/project/cvdupdate/) to save bandwidth on the\0A\00", align 1
@.str.93 = private unnamed_addr constant [31 x i8] c"    CDN and your own network.\0A\00", align 1
@.str.95 = private unnamed_addr constant [29 x i8] c"    it will not be granted.\0A\00", align 1
@.str.97 = private unnamed_addr constant [41 x i8] c"fc_update_databases: Invalid arguments.\0A\00", align 1
@.str.98 = private unnamed_addr constant [101 x i8] c"FreshClam previously received error code 429 or 403 from the ClamAV Content Delivery Network (CDN).\0A\00", align 1
@.str.99 = private unnamed_addr constant [67 x i8] c"This means that you have been rate limited or blocked by the CDN.\0A\00", align 1
@.str.100 = private unnamed_addr constant [60 x i8] c" 1. Verify that you're running a supported ClamAV version.\0A\00", align 1
@.str.101 = private unnamed_addr constant [63 x i8] c"    See https://docs.clamav.net/faq/faq-eol.html for details.\0A\00", align 1
@.str.102 = private unnamed_addr constant [67 x i8] c" 2. Run FreshClam no more than once an hour to check for updates.\0A\00", align 1
@.str.103 = private unnamed_addr constant [76 x i8] c" 3. If you have more than 10 hosts on your network attempting to download,\0A\00", align 1
@.str.104 = private unnamed_addr constant [78 x i8] c" 4. Please do not open a ticket asking for an exemption from the rate limit,\0A\00", align 1
@.str.105 = private unnamed_addr constant [80 x i8] c" 5. If you have verified that you are not blocked due to your region, and have\0A\00", align 1
@.str.106 = private unnamed_addr constant [78 x i8] c"    not exceeded the rate limit, please provide the following cf-ray id when\0A\00", align 1
@.str.107 = private unnamed_addr constant [29 x i8] c"    submitting a ticket: %s\0A\00", align 1
@.str.108 = private unnamed_addr constant [44 x i8] c"You are still on cool-down until after: %s\0A\00", align 1
@.str.109 = private unnamed_addr constant [37 x i8] c"Cool-down expired, ok to try again.\0A\00", align 1

; Function Attrs: nounwind uwtable
define i32 @fc_update_databases(ptr noundef %0, i32 noundef %1, ptr noundef %2, i32 noundef %3, i32 noundef %4, ptr noundef %5, i32 noundef %6, ptr noundef %7, ptr noundef %8) #0 {
  %10 = alloca ptr, align 8
  %11 = alloca i32, align 4
  %12 = alloca ptr, align 8
  %13 = alloca i32, align 4
  %14 = alloca i32, align 4
  %15 = alloca ptr, align 8
  %16 = alloca i32, align 4
  %17 = alloca ptr, align 8
  %18 = alloca ptr, align 8
  %19 = alloca i32, align 4
  %20 = alloca i32, align 4
  %21 = alloca i32, align 4
  %22 = alloca i32, align 4
  %23 = alloca i32, align 4
  %24 = alloca [26 x i8], align 16
  %25 = alloca ptr, align 8
  store ptr %0, ptr %10, align 8
  store i32 %1, ptr %11, align 4
  store ptr %2, ptr %12, align 8
  store i32 %3, ptr %13, align 4
  store i32 %4, ptr %14, align 4
  store ptr %5, ptr %15, align 8
  store i32 %6, ptr %16, align 4
  store ptr %7, ptr %17, align 8
  store ptr %8, ptr %18, align 8
  store i32 16, ptr %20, align 4
  store i32 0, ptr %22, align 4
  store i32 0, ptr %23, align 4
  %26 = load ptr, ptr %10, align 8
  %27 = icmp eq ptr null, %26
  br i1 %27, label %37, label %28

28:                                               ; preds = %9
  %29 = load i32, ptr %11, align 4
  %30 = icmp eq i32 0, %29
  br i1 %30, label %37, label %31

31:                                               ; preds = %28
  %32 = load ptr, ptr %12, align 8
  %33 = icmp eq ptr null, %32
  br i1 %33, label %37, label %34

34:                                               ; preds = %31
  %35 = load ptr, ptr %18, align 8
  %36 = icmp eq ptr null, %35
  br i1 %36, label %37, label %39

37:                                               ; preds = %34, %31, %28, %9
  %38 = call i32 (i32, ptr, ...) @logg(i32 noundef 4, ptr noundef @.str.97)
  br label %126

39:                                               ; preds = %34
  %40 = load ptr, ptr %18, align 8
  store i32 0, ptr %40, align 4
  %41 = load ptr, ptr @g_freshclamDat, align 8
  %42 = getelementptr inbounds %struct._freshclam_dat_v1, ptr %41, i32 0, i32 2
  %43 = load i64, ptr %42, align 8
  %44 = icmp sgt i64 %43, 0
  br i1 %44, label %45, label %92

45:                                               ; preds = %39
  %46 = load ptr, ptr @g_freshclamDat, align 8
  %47 = getelementptr inbounds %struct._freshclam_dat_v1, ptr %46, i32 0, i32 2
  %48 = load i64, ptr %47, align 8
  %49 = call i64 @time(ptr noundef null) #10
  %50 = icmp sgt i64 %48, %49
  br i1 %50, label %51, label %86

51:                                               ; preds = %45
  %52 = load ptr, ptr @g_freshclamDat, align 8
  %53 = getelementptr inbounds %struct._freshclam_dat_v1, ptr %52, i32 0, i32 2
  %54 = call ptr @localtime(ptr noundef %53) #10
  store ptr %54, ptr %25, align 8
  %55 = load ptr, ptr %25, align 8
  %56 = icmp eq ptr null, %55
  br i1 %56, label %57, label %59

57:                                               ; preds = %51
  %58 = call i32 (i32, ptr, ...) @logg(i32 noundef 5, ptr noundef @.str.68)
  store i32 19, ptr %20, align 4
  br label %126

59:                                               ; preds = %51
  %60 = getelementptr inbounds [26 x i8], ptr %24, i64 0, i64 0
  %61 = load ptr, ptr %25, align 8
  %62 = call i64 @strftime(ptr noundef %60, i64 noundef 26, ptr noundef @.str.69, ptr noundef %61) #10
  %63 = call i32 (i32, ptr, ...) @logg(i32 noundef 4, ptr noundef @.str.98)
  %64 = call i32 (i32, ptr, ...) @logg(i32 noundef 0, ptr noundef @.str.99)
  %65 = call i32 (i32, ptr, ...) @logg(i32 noundef 0, ptr noundef @.str.100)
  %66 = call i32 (i32, ptr, ...) @logg(i32 noundef 0, ptr noundef @.str.101)
  %67 = call i32 (i32, ptr, ...) @logg(i32 noundef 0, ptr noundef @.str.102)
  %68 = call i32 (i32, ptr, ...) @logg(i32 noundef 0, ptr noundef @.str.89)
  %69 = call i32 (i32, ptr, ...) @logg(i32 noundef 0, ptr noundef @.str.103)
  %70 = call i32 (i32, ptr, ...) @logg(i32 noundef 0, ptr noundef @.str.91)
  %71 = call i32 (i32, ptr, ...) @logg(i32 noundef 0, ptr noundef @.str.92)
  %72 = call i32 (i32, ptr, ...) @logg(i32 noundef 0, ptr noundef @.str.93)
  %73 = call i32 (i32, ptr, ...) @logg(i32 noundef 0, ptr noundef @.str.104)
  %74 = call i32 (i32, ptr, ...) @logg(i32 noundef 0, ptr noundef @.str.95)
  %75 = load i8, ptr @g_lastRay, align 16
  %76 = zext i8 %75 to i32
  %77 = icmp ne i32 0, %76
  br i1 %77, label %78, label %83

78:                                               ; preds = %59
  %79 = call i32 (i32, ptr, ...) @logg(i32 noundef 0, ptr noundef @.str.105)
  %80 = call i32 (i32, ptr, ...) @logg(i32 noundef 0, ptr noundef @.str.106)
  %81 = call i32 (i32, ptr, ...) @logg(i32 noundef 0, ptr noundef @.str.107, ptr noundef @g_lastRay)
  %82 = call i32 (i32, ptr, ...) @logg(i32 noundef 0, ptr noundef @.str.84)
  br label %83

83:                                               ; preds = %78, %59
  %84 = getelementptr inbounds [26 x i8], ptr %24, i64 0, i64 0
  %85 = call i32 (i32, ptr, ...) @logg(i32 noundef 4, ptr noundef @.str.108, ptr noundef %84)
  store i32 0, ptr %20, align 4
  br label %126

86:                                               ; preds = %45
  %87 = load ptr, ptr @g_freshclamDat, align 8
  %88 = getelementptr inbounds %struct._freshclam_dat_v1, ptr %87, i32 0, i32 2
  store i64 0, ptr %88, align 8
  %89 = call i32 (i32, ptr, ...) @logg(i32 noundef 4, ptr noundef @.str.109)
  %90 = call i32 @save_freshclam_dat()
  br label %91

91:                                               ; preds = %86
  br label %92

92:                                               ; preds = %91, %39
  call void @llvm.memset.p0.i64(ptr align 16 @g_lastRay, i8 0, i64 21, i1 false)
  store i32 0, ptr %21, align 4
  br label %93

93:                                               ; preds = %120, %92
  %94 = load i32, ptr %21, align 4
  %95 = load i32, ptr %11, align 4
  %96 = icmp ult i32 %94, %95
  br i1 %96, label %97, label %123

97:                                               ; preds = %93
  %98 = load ptr, ptr %10, align 8
  %99 = load i32, ptr %21, align 4
  %100 = zext i32 %99 to i64
  %101 = getelementptr inbounds ptr, ptr %98, i64 %100
  %102 = load ptr, ptr %101, align 8
  %103 = load ptr, ptr %12, align 8
  %104 = load i32, ptr %13, align 4
  %105 = load i32, ptr %14, align 4
  %106 = load ptr, ptr %15, align 8
  %107 = load i32, ptr %16, align 4
  %108 = load ptr, ptr %17, align 8
  %109 = call i32 @fc_update_database(ptr noundef %102, ptr noundef %103, i32 noundef %104, i32 noundef %105, ptr noundef %106, i32 noundef %107, ptr noundef %108, ptr noundef %22)
  store i32 %109, ptr %19, align 4
  %110 = icmp ne i32 0, %109
  br i1 %110, label %111, label %113

111:                                              ; preds = %97
  %112 = load i32, ptr %19, align 4
  store i32 %112, ptr %20, align 4
  br label %126

113:                                              ; preds = %97
  %114 = load i32, ptr %22, align 4
  %115 = icmp ne i32 %114, 0
  br i1 %115, label %116, label %119

116:                                              ; preds = %113
  %117 = load i32, ptr %23, align 4
  %118 = add i32 %117, 1
  store i32 %118, ptr %23, align 4
  br label %119

119:                                              ; preds = %116, %113
  br label %120

120:                                              ; preds = %119
  %121 = load i32, ptr %21, align 4
  %122 = add i32 %121, 1
  store i32 %122, ptr %21, align 4
  br label %93

123:                                              ; preds = %93
  %124 = load i32, ptr %23, align 4
  %125 = load ptr, ptr %18, align 8
  store i32 %124, ptr %125, align 4
  store i32 0, ptr %20, align 4
  br label %126

126:                                              ; preds = %123, %111, %83, %57, %37
  %127 = load i32, ptr %20, align 4
  ret i32 %127
}