; Function Attrs: nounwind uwtable
define noundef i32 @fc_update_databases(ptr noundef readonly %0, i32 noundef %1, ptr noundef %2, i32 noundef %3, i32 noundef %4, ptr noundef %5, i32 noundef %6, ptr noundef %7, ptr noundef writeonly %8) local_unnamed_addr #1 {
  %10 = alloca i32, align 4
  %11 = alloca [26 x i8], align 16
  store i32 0, ptr %10, align 4
  %12 = icmp eq ptr %0, null
  %13 = icmp eq i32 %1, 0
  %or.cond = or i1 %12, %13
  %14 = icmp eq ptr %2, null
  %or.cond3 = or i1 %or.cond, %14
  %15 = icmp eq ptr %8, null
  %or.cond5 = or i1 %or.cond3, %15
  br i1 %or.cond5, label %16, label %18

16:                                               ; preds = %9
  %17 = tail call i32 (i32, ptr, ...) @logg(i32 noundef 4, ptr noundef nonnull @.str.97) #15
  br label %.loopexit

18:                                               ; preds = %9
  store i32 0, ptr %8, align 4
  %19 = load ptr, ptr @g_freshclamDat, align 8
  %20 = getelementptr inbounds nuw i8, ptr %19, i64 48
  %21 = load i64, ptr %20, align 8
  %22 = icmp sgt i64 %21, 0
  br i1 %22, label %23, label %.lr.ph.preheader

23:                                               ; preds = %18
  %24 = tail call i64 @time(ptr noundef null) #15
  %25 = icmp sgt i64 %21, %24
  %26 = load ptr, ptr @g_freshclamDat, align 8
  %27 = getelementptr inbounds nuw i8, ptr %26, i64 48
  br i1 %25, label %28, label %55

28:                                               ; preds = %23
  %29 = tail call ptr @localtime(ptr noundef nonnull %27) #15
  %30 = icmp eq ptr %29, null
  br i1 %30, label %31, label %33

31:                                               ; preds = %28
  %32 = tail call i32 (i32, ptr, ...) @logg(i32 noundef 5, ptr noundef nonnull @.str.68) #15
  br label %.loopexit

33:                                               ; preds = %28
  %34 = call i64 @strftime(ptr noundef nonnull %11, i64 noundef 26, ptr noundef nonnull @.str.69, ptr noundef nonnull %29) #15
  %35 = call i32 (i32, ptr, ...) @logg(i32 noundef 4, ptr noundef nonnull @.str.98) #15
  %36 = call i32 (i32, ptr, ...) @logg(i32 noundef 0, ptr noundef nonnull @.str.99) #15
  %37 = call i32 (i32, ptr, ...) @logg(i32 noundef 0, ptr noundef nonnull @.str.100) #15
  %38 = call i32 (i32, ptr, ...) @logg(i32 noundef 0, ptr noundef nonnull @.str.101) #15
  %39 = call i32 (i32, ptr, ...) @logg(i32 noundef 0, ptr noundef nonnull @.str.102) #15
  %40 = call i32 (i32, ptr, ...) @logg(i32 noundef 0, ptr noundef nonnull @.str.89) #15
  %41 = call i32 (i32, ptr, ...) @logg(i32 noundef 0, ptr noundef nonnull @.str.103) #15
  %42 = call i32 (i32, ptr, ...) @logg(i32 noundef 0, ptr noundef nonnull @.str.91) #15
  %43 = call i32 (i32, ptr, ...) @logg(i32 noundef 0, ptr noundef nonnull @.str.92) #15
  %44 = call i32 (i32, ptr, ...) @logg(i32 noundef 0, ptr noundef nonnull @.str.93) #15
  %45 = call i32 (i32, ptr, ...) @logg(i32 noundef 0, ptr noundef nonnull @.str.104) #15
  %46 = call i32 (i32, ptr, ...) @logg(i32 noundef 0, ptr noundef nonnull @.str.95) #15
  %47 = load i8, ptr @g_lastRay, align 16
  %.not37 = icmp eq i8 %47, 0
  br i1 %.not37, label %53, label %48

48:                                               ; preds = %33
  %49 = call i32 (i32, ptr, ...) @logg(i32 noundef 0, ptr noundef nonnull @.str.105) #15
  %50 = call i32 (i32, ptr, ...) @logg(i32 noundef 0, ptr noundef nonnull @.str.106) #15
  %51 = call i32 (i32, ptr, ...) @logg(i32 noundef 0, ptr noundef nonnull @.str.107, ptr noundef nonnull @g_lastRay) #15
  %52 = call i32 (i32, ptr, ...) @logg(i32 noundef 0, ptr noundef nonnull @.str.84) #15
  br label %53

53:                                               ; preds = %48, %33
  %54 = call i32 (i32, ptr, ...) @logg(i32 noundef 4, ptr noundef nonnull @.str.108, ptr noundef nonnull %11) #15
  br label %.loopexit

55:                                               ; preds = %23
  store i64 0, ptr %27, align 8
  %56 = tail call i32 (i32, ptr, ...) @logg(i32 noundef 4, ptr noundef nonnull @.str.109) #15
  %57 = tail call i32 @save_freshclam_dat() #15
  br label %.lr.ph.preheader

.lr.ph.preheader:                                 ; preds = %18, %55
  tail call void @llvm.memset.p0.i64(ptr noundef nonnull align 16 dereferenceable(21) @g_lastRay, i8 0, i64 21, i1 false)
  %wide.trip.count = zext i32 %1 to i64
  br label %.lr.ph

.lr.ph:                                           ; preds = %.lr.ph.preheader, %61
  %indvars.iv = phi i64 [ 0, %.lr.ph.preheader ], [ %indvars.iv.next, %61 ]
  %.02740 = phi i32 [ 0, %.lr.ph.preheader ], [ %spec.select, %61 ]
  %58 = getelementptr inbounds nuw ptr, ptr %0, i64 %indvars.iv
  %59 = load ptr, ptr %58, align 8
  %60 = call i32 @fc_update_database(ptr noundef %59, ptr noundef %2, i32 noundef %3, i32 noundef %4, ptr noundef %5, i32 noundef %6, ptr noundef %7, ptr noundef nonnull %10)
  %.not = icmp eq i32 %60, 0
  br i1 %.not, label %61, label %.loopexit

61:                                               ; preds = %.lr.ph
  %62 = load i32, ptr %10, align 4
  %.not36 = icmp ne i32 %62, 0
  %63 = zext i1 %.not36 to i32
  %spec.select = add i32 %.02740, %63
  %indvars.iv.next = add nuw nsw i64 %indvars.iv, 1
  %exitcond.not = icmp eq i64 %indvars.iv.next, %wide.trip.count
  br i1 %exitcond.not, label %._crit_edge, label %.lr.ph

._crit_edge:                                      ; preds = %61
  store i32 %spec.select, ptr %8, align 4
  br label %.loopexit

.loopexit:                                        ; preds = %.lr.ph, %._crit_edge, %53, %31, %16
  %.0 = phi i32 [ 16, %16 ], [ 19, %31 ], [ 0, %53 ], [ 0, %._crit_edge ], [ %60, %.lr.ph ]
  ret i32 %.0
}